; Function Attrs: mustprogress uwtable
define noundef ptr @_ZNK6icu_7521TimeZoneNamesDelegate4findERKNS_13UnicodeStringEijR10UErrorCode(ptr nocapture noundef nonnull readonly align 8 dereferenceable(16) %this, ptr noundef nonnull align 8 dereferenceable(64) %text, i32 noundef %start, i32 noundef %types, ptr noundef nonnull align 4 dereferenceable(4) %status) unnamed_addr #1 align 2 {
entry:
  %fTZnamesCacheEntry = getelementptr inbounds i8, ptr %this, i64 8
  %0 = load ptr, ptr %fTZnamesCacheEntry, align 8
  %1 = load ptr, ptr %0, align 8
  %vtable = load ptr, ptr %1, align 8
  %vfn = getelementptr inbounds i8, ptr %vtable, i64 120
  %2 = load ptr, ptr %vfn, align 8
  %call = tail call noundef ptr %2(ptr noundef nonnull align 8 dereferenceable(8) %1, ptr noundef nonnull align 8 dereferenceable(64) %text, i32 noundef %start, i32 noundef %types, ptr noundef nonnull align 4 dereferenceable(4) %status)
  ret ptr %call
}